target datalayout = "e-m:e-p270:32:32-p271:32:32-p272:64:64-i64:64-i128:128-f80:128-n8:16:32:64-S128"
target triple = "x86_64-pc-linux-gnu"

; Function Attrs: nounwind uwtable
define internal void @VE4_C(ptr noundef %0) #0 {
  %2 = alloca ptr, align 8
  %3 = alloca ptr, align 8
  %4 = alloca [4 x i8], align 1
  %5 = alloca i32, align 4
  store ptr %0, ptr %2, align 8, !tbaa !16
  call void @llvm.lifetime.start.p0(i64 8, ptr %3) #7
  %6 = load ptr, ptr %2, align 8, !tbaa !16
  %7 = getelementptr inbounds i8, ptr %6, i64 -32
  store ptr %7, ptr %3, align 8, !tbaa !16
  call void @llvm.lifetime.start.p0(i64 4, ptr %4) #7
  %8 = load ptr, ptr %3, align 8, !tbaa !16
  %9 = getelementptr inbounds i8, ptr %8, i64 -1
  %10 = load i8, ptr %9, align 1, !tbaa !18
  %11 = zext i8 %10 to i32
  %12 = load ptr, ptr %3, align 8, !tbaa !16
  %13 = getelementptr inbounds i8, ptr %12, i64 0
  %14 = load i8, ptr %13, align 1, !tbaa !18
  %15 = zext i8 %14 to i32
  %16 = mul nsw i32 2, %15
  %17 = add nsw i32 %11, %16
  %18 = load ptr, ptr %3, align 8, !tbaa !16
  %19 = getelementptr inbounds i8, ptr %18, i64 1
  %20 = load i8, ptr %19, align 1, !tbaa !18
  %21 = zext i8 %20 to i32
  %22 = add nsw i32 %17, %21
  %23 = add nsw i32 %22, 2
  %24 = ashr i32 %23, 2
  %25 = trunc i32 %24 to i8
  store i8 %25, ptr %4, align 1, !tbaa !18
  %26 = getelementptr inbounds i8, ptr %4, i64 1
  %27 = load ptr, ptr %3, align 8, !tbaa !16
  %28 = getelementptr inbounds i8, ptr %27, i64 0
  %29 = load i8, ptr %28, align 1, !tbaa !18
  %30 = zext i8 %29 to i32
  %31 = load ptr, ptr %3, align 8, !tbaa !16
  %32 = getelementptr inbounds i8, ptr %31, i64 1
  %33 = load i8, ptr %32, align 1, !tbaa !18
  %34 = zext i8 %33 to i32
  %35 = mul nsw i32 2, %34
  %36 = add nsw i32 %30, %35
  %37 = load ptr, ptr %3, align 8, !tbaa !16
  %38 = getelementptr inbounds i8, ptr %37, i64 2
  %39 = load i8, ptr %38, align 1, !tbaa !18
  %40 = zext i8 %39 to i32
  %41 = add nsw i32 %36, %40
  %42 = add nsw i32 %41, 2
  %43 = ashr i32 %42, 2
  %44 = trunc i32 %43 to i8
  store i8 %44, ptr %26, align 1, !tbaa !18
  %45 = getelementptr inbounds i8, ptr %4, i64 2
  %46 = load ptr, ptr %3, align 8, !tbaa !16
  %47 = getelementptr inbounds i8, ptr %46, i64 1
  %48 = load i8, ptr %47, align 1, !tbaa !18
  %49 = zext i8 %48 to i32
  %50 = load ptr, ptr %3, align 8, !tbaa !16
  %51 = getelementptr inbounds i8, ptr %50, i64 2
  %52 = load i8, ptr %51, align 1, !tbaa !18
  %53 = zext i8 %52 to i32
  %54 = mul nsw i32 2, %53
  %55 = add nsw i32 %49, %54
  %56 = load ptr, ptr %3, align 8, !tbaa !16
  %57 = getelementptr inbounds i8, ptr %56, i64 3
  %58 = load i8, ptr %57, align 1, !tbaa !18
  %59 = zext i8 %58 to i32
  %60 = add nsw i32 %55, %59
  %61 = add nsw i32 %60, 2
  %62 = ashr i32 %61, 2
  %63 = trunc i32 %62 to i8
  store i8 %63, ptr %45, align 1, !tbaa !18
  %64 = getelementptr inbounds i8, ptr %4, i64 3
  %65 = load ptr, ptr %3, align 8, !tbaa !16
  %66 = getelementptr inbounds i8, ptr %65, i64 2
  %67 = load i8, ptr %66, align 1, !tbaa !18
  %68 = zext i8 %67 to i32
  %69 = load ptr, ptr %3, align 8, !tbaa !16
  %70 = getelementptr inbounds i8, ptr %69, i64 3
  %71 = load i8, ptr %70, align 1, !tbaa !18
  %72 = zext i8 %71 to i32
  %73 = mul nsw i32 2, %72
  %74 = add nsw i32 %68, %73
  %75 = load ptr, ptr %3, align 8, !tbaa !16
  %76 = getelementptr inbounds i8, ptr %75, i64 4
  %77 = load i8, ptr %76, align 1, !tbaa !18
  %78 = zext i8 %77 to i32
  %79 = add nsw i32 %74, %78
  %80 = add nsw i32 %79, 2
  %81 = ashr i32 %80, 2
  %82 = trunc i32 %81 to i8
  store i8 %82, ptr %64, align 1, !tbaa !18
  call void @llvm.lifetime.start.p0(i64 4, ptr %5) #7
  store i32 0, ptr %5, align 4, !tbaa !9
  br label %83

83:                                               ; preds = %93, %1
  %84 = load i32, ptr %5, align 4, !tbaa !9
  %85 = icmp slt i32 %84, 4
  br i1 %85, label %86, label %96

86:                                               ; preds = %83
  %87 = load ptr, ptr %2, align 8, !tbaa !16
  %88 = load i32, ptr %5, align 4, !tbaa !9
  %89 = mul nsw i32 %88, 32
  %90 = sext i32 %89 to i64
  %91 = getelementptr inbounds i8, ptr %87, i64 %90
  %92 = getelementptr inbounds [4 x i8], ptr %4, i64 0, i64 0
  call void @llvm.memcpy.p0.p0.i64(ptr align 1 %91, ptr align 1 %92, i64 4, i1 false)
  br label %93

93:                                               ; preds = %86
  %94 = load i32, ptr %5, align 4, !tbaa !9
  %95 = add nsw i32 %94, 1
  store i32 %95, ptr %5, align 4, !tbaa !9
  br label %83, !llvm.loop !29

96:                                               ; preds = %83
  call void @llvm.lifetime.end.p0(i64 4, ptr %5) #7
  call void @llvm.lifetime.end.p0(i64 4, ptr %4) #7
  call void @llvm.lifetime.end.p0(i64 8, ptr %3) #7
  ret void
}