; Function Attrs: nofree norecurse nosync nounwind memory(argmem: readwrite) uwtable
define internal void @VE4_C(ptr noundef captures(none) %0) #3 {
  %2 = getelementptr inbounds i8, ptr %0, i64 -32
  %3 = getelementptr inbounds i8, ptr %0, i64 -33
  %4 = load i8, ptr %3, align 1, !tbaa !14
  %5 = zext i8 %4 to i32
  %6 = load i8, ptr %2, align 1, !tbaa !14
  %7 = zext i8 %6 to i32
  %8 = shl nuw nsw i32 %7, 1
  %9 = getelementptr inbounds i8, ptr %0, i64 -31
  %10 = load i8, ptr %9, align 1, !tbaa !14
  %11 = zext i8 %10 to i32
  %12 = add nuw nsw i32 %11, 2
  %13 = add nuw nsw i32 %12, %5
  %14 = add nuw nsw i32 %13, %8
  %15 = lshr i32 %14, 2
  %16 = trunc nuw i32 %15 to i8
  %17 = shl nuw nsw i32 %11, 1
  %18 = getelementptr inbounds i8, ptr %0, i64 -30
  %19 = load i8, ptr %18, align 1, !tbaa !14
  %20 = zext i8 %19 to i32
  %21 = add nuw nsw i32 %20, 2
  %22 = add nuw nsw i32 %21, %7
  %23 = add nuw nsw i32 %22, %17
  %24 = lshr i32 %23, 2
  %25 = trunc nuw i32 %24 to i8
  %26 = shl nuw nsw i32 %20, 1
  %27 = getelementptr inbounds i8, ptr %0, i64 -29
  %28 = load i8, ptr %27, align 1, !tbaa !14
  %29 = zext i8 %28 to i32
  %30 = add nuw nsw i32 %12, %26
  %31 = add nuw nsw i32 %30, %29
  %32 = lshr i32 %31, 2
  %33 = trunc nuw i32 %32 to i8
  %34 = shl nuw nsw i32 %29, 1
  %35 = getelementptr inbounds i8, ptr %0, i64 -28
  %36 = load i8, ptr %35, align 1, !tbaa !14
  %37 = zext i8 %36 to i32
  %38 = add nuw nsw i32 %21, %34
  %39 = add nuw nsw i32 %38, %37
  %40 = lshr i32 %39, 2
  %41 = trunc nuw i32 %40 to i8
  br label %42

42:                                               ; preds = %1, %42
  %indvars.iv = phi i64 [ 0, %1 ], [ %indvars.iv.next, %42 ]
  %43 = shl nuw nsw i64 %indvars.iv, 5
  %44 = getelementptr inbounds nuw i8, ptr %0, i64 %43
  store i8 %16, ptr %44, align 1
  %.sroa.4.0..sroa_idx = getelementptr inbounds nuw i8, ptr %44, i64 1
  store i8 %25, ptr %.sroa.4.0..sroa_idx, align 1
  %.sroa.5.0..sroa_idx = getelementptr inbounds nuw i8, ptr %44, i64 2
  store i8 %33, ptr %.sroa.5.0..sroa_idx, align 1
  %.sroa.6.0..sroa_idx = getelementptr inbounds nuw i8, ptr %44, i64 3
  store i8 %41, ptr %.sroa.6.0..sroa_idx, align 1
  %indvars.iv.next = add nuw nsw i64 %indvars.iv, 1
  %exitcond.not = icmp eq i64 %indvars.iv.next, 4
  br i1 %exitcond.not, label %45, label %42, !llvm.loop !29

45:                                               ; preds = %42
  ret void
}